; Function Attrs: null_pointer_is_valid sspstrong uwtable
define internal i32 @dissect_ranap_NAS_PDU(ptr noundef %0, i32 noundef %1, ptr noundef %2, ptr noundef %3, i32 noundef %4) #0 {
  %6 = alloca ptr, align 8
  call void @llvm.lifetime.start.p0(i64 8, ptr nonnull %6) #4
  store ptr null, ptr %6, align 8
  %7 = call i32 @dissect_per_octet_string(ptr noundef %0, i32 noundef %1, ptr noundef %2, ptr noundef %3, i32 noundef %4, i32 noundef -1, i32 noundef -1, i1 noundef zeroext false, ptr noundef nonnull %6)
  %8 = load ptr, ptr %6, align 8
  %.not = icmp eq ptr %8, null
  br i1 %.not, label %15, label %9

9:                                                ; preds = %5
  %10 = load ptr, ptr @nas_pdu_dissector_table, align 8
  %11 = getelementptr inbounds nuw i8, ptr %2, i64 16
  %12 = load ptr, ptr %11, align 8
  %13 = call ptr @proto_tree_get_root(ptr noundef %3)
  %14 = call i32 @dissector_try_uint(ptr noundef %10, i32 noundef 1, ptr noundef nonnull %8, ptr noundef %12, ptr noundef %13)
  br label %15

15:                                               ; preds = %9, %5
  call void @llvm.lifetime.end.p0(i64 8, ptr nonnull %6) #4
  ret i32 %7
}